; Function Attrs: mustprogress nofree norecurse nosync nounwind willreturn memory(argmem: write) uwtable
define void @_ZN10open_spiel9solitaire4CardC2EbNS0_8SuitTypeENS0_8RankTypeENS0_12LocationTypeE(ptr nocapture noundef nonnull writeonly align 4 dereferenceable(20) %0, i1 noundef zeroext %1, i32 noundef %2, i32 noundef %3, i32 noundef %4) unnamed_addr #8 align 2 {
  %6 = zext i1 %1 to i8
  store i32 %3, ptr %0, align 4
  %7 = getelementptr inbounds nuw i8, ptr %0, i64 4
  store i32 %2, ptr %7, align 4
  %8 = getelementptr inbounds nuw i8, ptr %0, i64 8
  store i32 %4, ptr %8, align 4
  %9 = getelementptr inbounds nuw i8, ptr %0, i64 12
  store i8 %6, ptr %9, align 4
  %10 = getelementptr inbounds nuw i8, ptr %0, i64 16
  store i32 99, ptr %10, align 4
  ret void
}